; Function Attrs: mustprogress nofree norecurse nosync nounwind willreturn memory(argmem: readwrite) uwtable
define internal noundef zeroext i1 @"_ZNSt17_Function_handlerIFSt8optionalIN32pxrInternal_v0_24__pxrReserved__7SdfPathEERKS2_EZNS1_18SdfShouldCopyValueES5_S5_NS1_11SdfSpecTypeERKNS1_7TfTokenERKNS1_9TfWeakPtrINS1_8SdfLayerEEES5_bSF_S5_bPS0_INS1_7VtValueEEE3$_0E10_M_managerERSt9_Any_dataRKSL_St18_Manager_operation"(ptr noundef nonnull writeonly align 8 captures(none) dereferenceable(16) %0, ptr noundef nonnull align 8 dereferenceable(16) %1, i32 noundef %2) #14 align 2 personality ptr @__gxx_personality_v0 {
  switch i32 %2, label %"_ZNSt14_Function_base13_Base_managerIZN32pxrInternal_v0_24__pxrReserved__18SdfShouldCopyValueERKNS1_7SdfPathES4_NS1_11SdfSpecTypeERKNS1_7TfTokenERKNS1_9TfWeakPtrINS1_8SdfLayerEEES4_bSD_S4_bPSt8optionalINS1_7VtValueEEE3$_0E10_M_managerERSt9_Any_dataRKSK_St18_Manager_operation.exit" [
    i32 0, label %4
    i32 1, label %5
    i32 2, label %6
  ]

4:                                                ; preds = %3
  store ptr @"_ZTIZN32pxrInternal_v0_24__pxrReserved__18SdfShouldCopyValueERKNS_7SdfPathES2_NS_11SdfSpecTypeERKNS_7TfTokenERKNS_9TfWeakPtrINS_8SdfLayerEEES2_bSB_S2_bPSt8optionalINS_7VtValueEEE3$_0", ptr %0, align 8
  br label %"_ZNSt14_Function_base13_Base_managerIZN32pxrInternal_v0_24__pxrReserved__18SdfShouldCopyValueERKNS1_7SdfPathES4_NS1_11SdfSpecTypeERKNS1_7TfTokenERKNS1_9TfWeakPtrINS1_8SdfLayerEEES4_bSD_S4_bPSt8optionalINS1_7VtValueEEE3$_0E10_M_managerERSt9_Any_dataRKSK_St18_Manager_operation.exit"

5:                                                ; preds = %3
  store ptr %1, ptr %0, align 8
  br label %"_ZNSt14_Function_base13_Base_managerIZN32pxrInternal_v0_24__pxrReserved__18SdfShouldCopyValueERKNS1_7SdfPathES4_NS1_11SdfSpecTypeERKNS1_7TfTokenERKNS1_9TfWeakPtrINS1_8SdfLayerEEES4_bSD_S4_bPSt8optionalINS1_7VtValueEEE3$_0E10_M_managerERSt9_Any_dataRKSK_St18_Manager_operation.exit"

6:                                                ; preds = %3
  tail call void @llvm.memcpy.p0.p0.i64(ptr noundef nonnull align 8 dereferenceable(16) %0, ptr noundef nonnull readonly align 8 dereferenceable(16) %1, i64 16, i1 false)
  br label %"_ZNSt14_Function_base13_Base_managerIZN32pxrInternal_v0_24__pxrReserved__18SdfShouldCopyValueERKNS1_7SdfPathES4_NS1_11SdfSpecTypeERKNS1_7TfTokenERKNS1_9TfWeakPtrINS1_8SdfLayerEEES4_bSD_S4_bPSt8optionalINS1_7VtValueEEE3$_0E10_M_managerERSt9_Any_dataRKSK_St18_Manager_operation.exit"

"_ZNSt14_Function_base13_Base_managerIZN32pxrInternal_v0_24__pxrReserved__18SdfShouldCopyValueERKNS1_7SdfPathES4_NS1_11SdfSpecTypeERKNS1_7TfTokenERKNS1_9TfWeakPtrINS1_8SdfLayerEEES4_bSD_S4_bPSt8optionalINS1_7VtValueEEE3$_0E10_M_managerERSt9_Any_dataRKSK_St18_Manager_operation.exit": ; preds = %3, %6, %5, %4
  ret i1 false
}